; Function Attrs: nounwind sspstrong uwtable
define internal noundef i64 @rb_digest_base_update(i64 noundef returned %0, i64 noundef %1) #0 {
  %3 = alloca i64, align 8
  %4 = alloca ptr, align 8
  store i64 %1, ptr %3, align 8, !tbaa !6
  %5 = tail call i64 @rb_obj_class(i64 noundef %0) #9
  %6 = tail call fastcc nonnull ptr @get_digest_base_metadata(i64 noundef %5)
  %7 = tail call ptr @rb_check_typeddata(i64 noundef %0, ptr noundef nonnull @digest_type) #9
  %8 = call i64 @rb_string_value(ptr noundef nonnull %3) #9
  %9 = getelementptr inbounds nuw i8, ptr %6, i64 40
  %10 = load ptr, ptr %9, align 8, !tbaa !62
  %11 = load i64, ptr %3, align 8, !tbaa !6
  %12 = inttoptr i64 %11 to ptr
  %13 = load i64, ptr %12, align 8, !tbaa !10, !noalias !63
  %14 = and i64 %13, 8192
  %.not.i.i = icmp eq i64 %14, 0
  %15 = getelementptr inbounds nuw i8, ptr %12, i64 24
  br i1 %.not.i.i, label %RSTRING_PTR.exit, label %16

16:                                               ; preds = %2
  %.sroa.2.0.copyload.i = load ptr, ptr %15, align 8
  br label %RSTRING_PTR.exit

RSTRING_PTR.exit:                                 ; preds = %2, %16
  %.sroa.2.0.i = phi ptr [ %.sroa.2.0.copyload.i, %16 ], [ %15, %2 ]
  %17 = getelementptr inbounds nuw i8, ptr %12, i64 16
  %18 = load i64, ptr %17, align 8, !tbaa !15
  call void %10(ptr noundef %7, ptr noundef %.sroa.2.0.i, i64 noundef %18) #9
  call void @llvm.lifetime.start.p0(i64 8, ptr nonnull %4) #9
  store ptr %3, ptr %4, align 8, !tbaa !24
  call void asm sideeffect "", "*m,~{dirflag},~{fpsr},~{flags}"(ptr nonnull elementtype(ptr) %4) #9, !srcloc !66
  %19 = load ptr, ptr %4, align 8, !tbaa !24
  call void @llvm.lifetime.end.p0(i64 8, ptr nonnull %4) #9
  %20 = load volatile i64, ptr %19, align 8, !tbaa !6
  ret i64 %0
}